Certificate:
    Data:
        Version: 3 (0x2)
        Serial Number: 2 (0x2)
    Signature Algorithm: sha512WithRSAEncryption
        Issuer: C=AU, ST=NSW, L=Sydney, O=Netcommwireless, CN=Netcommwireless CA/emailAddress=cert@netcommwireless.com
        Validity
            Not Before: Mar 12 22:16:09 2017 GMT
            Not After : Mar 10 22:16:09 2027 GMT
        Subject: C=AU, ST=NSW, L=Sydney, O=Netcommwireless, CN=server/emailAddress=cert@netcommwireless.com
        Subject Public Key Info:
            Public Key Algorithm: rsaEncryption
                Public-Key: (4096 bit)
                Modulus:
                    00:ac:00:4d:1a:69:e2:0d:5d:29:f5:63:21:d0:bf:
                    2f:fb:12:58:cd:d7:6a:1a:8a:2a:bc:a2:06:97:32:
                    0c:54:8f:52:f7:6d:11:22:4c:2f:37:16:5e:bd:36:
                    7c:ed:9b:05:b0:00:ed:0b:14:2b:1c:c2:6f:0b:70:
                    91:f7:20:6c:fb:53:fa:45:77:cc:8c:e0:d2:b9:11:
                    89:6a:6c:49:c5:9a:94:4a:d8:ba:1a:76:4a:2d:8a:
                    b0:a7:22:1e:82:2a:75:14:53:90:db:d7:2f:0b:cf:
                    ca:b9:20:33:63:4d:6e:84:4c:08:fc:41:96:41:ec:
                    56:d1:d0:77:05:06:e1:6c:f3:86:a1:e1:21:f2:e0:
                    f3:c3:a3:91:23:9c:47:c2:dd:ab:91:c3:7f:8f:21:
                    67:3a:9e:f2:5e:c8:dc:4b:f4:92:f5:71:4c:b6:43:
                    a5:63:6a:c4:d6:8e:33:92:f4:da:44:3f:0b:20:5e:
                    32:56:66:ef:a8:e7:86:2e:ba:6c:b2:c6:e8:37:39:
                    be:db:ca:f8:cb:0f:16:fe:42:9c:0b:bc:4f:dc:94:
                    5a:1e:1a:51:49:9f:fc:36:3c:f1:24:8a:22:63:60:
                    fd:63:45:0c:c9:6d:84:1e:a8:0b:6d:ad:0d:b2:86:
                    2f:53:2b:1c:f7:96:8f:46:ef:00:45:62:16:90:e3:
                    4f:cd:b1:ee:25:b7:74:b4:16:12:53:6c:1c:69:8c:
                    18:7d:eb:5e:67:70:cc:91:a4:cf:da:41:fc:e9:e6:
                    4c:58:77:47:fe:2f:a2:36:ca:3f:c5:c4:b6:9d:69:
                    0d:71:83:b9:67:65:db:07:a1:6b:78:e0:c9:b7:23:
                    19:96:3d:97:56:77:6f:be:63:b3:80:91:bc:5a:4a:
                    67:e9:f3:36:06:df:24:02:79:1c:a4:47:9f:74:73:
                    71:a1:b8:44:7e:f2:81:33:2c:6a:b3:32:4b:d8:15:
                    d8:07:02:58:63:c4:09:84:a7:5e:ab:c3:bc:3b:65:
                    32:87:75:1b:e9:be:f8:b2:f1:2e:03:50:35:06:e3:
                    b5:98:43:2c:34:c7:22:0d:cd:7c:82:92:d5:3c:ee:
                    15:b4:6b:15:3e:93:8a:bb:5d:29:4d:e6:ca:e9:94:
                    b1:c0:f2:16:ee:aa:a8:58:c4:a0:0a:be:a8:31:fc:
                    83:e6:b1:31:c8:52:ce:b9:32:be:52:b7:a6:a6:8f:
                    cd:95:ee:d2:87:ee:e6:a1:17:c0:ce:a2:22:d0:49:
                    d7:0a:88:fd:82:d2:37:91:bf:6c:8e:42:0f:67:51:
                    23:82:c0:5a:43:70:06:97:65:ae:b8:7e:da:37:8f:
                    9e:c0:a7:ee:c6:ef:40:d8:36:f1:b6:1d:b3:80:0b:
                    7e:1a:5b
                Exponent: 65537 (0x10001)
        X509v3 extensions:
            X509v3 Basic Constraints: 
                CA:FALSE
            Netscape Cert Type: 
                SSL Server
            Netscape Comment: 
                Easy-RSA Generated Server Certificate
            X509v3 Subject Key Identifier: 
                9F:9F:04:0C:65:3E:C9:F7:62:FB:39:EB:9B:21:B8:AB:9D:D4:3D:3B
            X509v3 Authority Key Identifier: 
                keyid:46:2C:12:9B:B9:1C:06:D9:87:CC:50:45:25:99:6C:3F:DD:FF:CC:FC
                DirName:/C=AU/ST=NSW/L=Sydney/O=Netcommwireless/CN=Netcommwireless CA/emailAddress=cert@netcommwireless.com
                serial:DF:66:0D:2F:E4:D0:ED:00

            X509v3 Extended Key Usage: 
                TLS Web Server Authentication
            X509v3 Key Usage: 
                Digital Signature, Key Encipherment
    Signature Algorithm: sha512WithRSAEncryption
         7c:24:af:2c:39:35:f8:29:e5:75:a3:7b:78:df:88:2a:4b:53:
         2e:80:28:7e:41:e0:aa:81:57:32:78:00:21:f6:26:0c:23:91:
         a9:10:5d:72:8b:48:5b:46:75:6f:71:ec:70:04:65:65:52:5e:
         90:1b:3f:4e:10:41:24:fb:cc:c5:11:d3:4a:b2:dd:b4:46:d0:
         79:1b:3e:3c:6f:ae:f0:8d:c6:eb:c3:c4:17:31:28:a5:bf:d6:
         00:a7:4e:c4:cb:5e:81:63:35:53:79:c1:56:81:4b:f7:40:c2:
         70:e6:f0:63:12:87:37:a0:80:50:28:83:42:21:c0:17:84:50:
         6a:9d:e2:a7:ce:7c:59:d8:28:45:79:81:ee:fb:8d:ff:97:d1:
         e2:4d:46:b8:5b:70:f5:1e:18:f8:ef:08:49:ad:10:c6:23:5e:
         09:61:70:bd:3a:73:d9:f8:14:ff:31:a8:49:35:b4:dc:00:e7:
         9a:a2:5f:e0:27:67:c1:2c:78:78:19:87:44:bf:cb:ee:b1:00:
         13:5a:fb:26:cc:bc:84:b5:4a:b4:fd:4d:79:55:d3:ca:01:cd:
         c5:6e:c8:dc:56:0d:41:8d:59:96:ad:91:40:8e:3f:62:e1:c9:
         c9:d0:82:a6:e3:92:09:c2:04:07:9c:c2:62:85:e8:7a:08:71:
         e6:61:1a:48:be:0f:73:4b:21:ed:ba:39:50:33:c4:20:32:f5:
         dc:ab:21:f5:c9:7d:e8:01:14:c9:24:b5:6b:29:33:11:cd:98:
         ed:be:54:ac:47:16:ad:96:d3:3c:32:0b:06:d2:96:93:52:15:
         17:67:9a:a7:fc:1b:0e:82:eb:a0:1e:34:16:0c:39:c9:7a:b6:
         d4:8d:85:41:6f:30:f3:34:b5:f4:90:3f:be:71:8a:0d:cf:12:
         eb:23:8c:18:9e:8d:17:f5:fa:6e:d2:40:e9:57:c0:38:fb:b9:
         9e:ac:38:b9:f0:80:51:32:3d:b5:7f:90:44:0b:01:ea:ce:7f:
         ea:a9:e3:e2:0e:f8:3d:88:54:61:a5:dd:84:c3:eb:3e:a4:13:
         65:0d:0b:5b:c7:2e:d2:b7:5d:f2:df:d2:cb:9b:29:c9:ef:12:
         79:c4:31:66:43:69:3a:ca:7d:90:69:4f:a0:73:0a:7f:09:0e:
         1a:fd:06:3d:94:1a:ab:7e:3b:63:07:d1:6d:62:56:b6:80:8b:
         3a:45:3c:c8:6d:a6:e1:06:da:7e:1f:cb:9e:4b:cf:33:86:66:
         e0:85:93:bd:6d:9d:92:dc:c2:3d:5d:4e:1c:48:51:9d:0a:17:
         b1:38:d7:73:f8:18:5e:42:b7:8c:ee:13:5f:2a:76:86:b6:21:
         47:42:ae:f8:af:17:4d:ab
-----BEGIN CERTIFICATE-----
MIIG6DCCBNCgAwIBAgIBAjANBgkqhkiG9w0BAQ0FADCBjDELMAkGA1UEBhMCQVUx
DDAKBgNVBAgTA05TVzEPMA0GA1UEBxMGU3lkbmV5MRgwFgYDVQQKEw9OZXRjb21t
d2lyZWxlc3MxGzAZBgNVBAMTEk5ldGNvbW13aXJlbGVzcyBDQTEnMCUGCSqGSIb3
DQEJARYYY2VydEBuZXRjb21td2lyZWxlc3MuY29tMB4XDTE3MDMxMjIyMTYwOVoX
DTI3MDMxMDIyMTYwOVowgYAxCzAJBgNVBAYTAkFVMQwwCgYDVQQIEwNOU1cxDzAN
BgNVBAcTBlN5ZG5leTEYMBYGA1UEChMPTmV0Y29tbXdpcmVsZXNzMQ8wDQYDVQQD
EwZzZXJ2ZXIxJzAlBgkqhkiG9w0BCQEWGGNlcnRAbmV0Y29tbXdpcmVsZXNzLmNv
bTCCAiIwDQYJKoZIhvcNAQEBBQADggIPADCCAgoCggIBAKwATRpp4g1dKfVjIdC/
L/sSWM3XahqKKryiBpcyDFSPUvdtESJMLzcWXr02fO2bBbAA7QsUKxzCbwtwkfcg
bPtT+kV3zIzg0rkRiWpsScWalErYuhp2Si2KsKciHoIqdRRTkNvXLwvPyrkgM2NN
boRMCPxBlkHsVtHQdwUG4WzzhqHhIfLg88OjkSOcR8Ldq5HDf48hZzqe8l7I3Ev0
kvVxTLZDpWNqxNaOM5L02kQ/CyBeMlZm76jnhi66bLLG6Dc5vtvK+MsPFv5CnAu8
T9yUWh4aUUmf/DY88SSKImNg/WNFDMlthB6oC22tDbKGL1MrHPeWj0bvAEViFpDj
T82x7iW3dLQWElNsHGmMGH3rXmdwzJGkz9pB/OnmTFh3R/4vojbKP8XEtp1pDXGD
uWdl2weha3jgybcjGZY9l1Z3b75js4CRvFpKZ+nzNgbfJAJ5HKRHn3RzcaG4RH7y
gTMsarMyS9gV2AcCWGPECYSnXqvDvDtlMod1G+m++LLxLgNQNQbjtZhDLDTHIg3N
fIKS1TzuFbRrFT6TirtdKU3myumUscDyFu6qqFjEoAq+qDH8g+axMchSzrkyvlK3
pqaPzZXu0ofu5qEXwM6iItBJ1wqI/YLSN5G/bI5CD2dRI4LAWkNwBpdlrrh+2jeP
nsCn7sbvQNg28bYds4ALfhpbAgMBAAGjggFdMIIBWTAJBgNVHRMEAjAAMBEGCWCG
SAGG+EIBAQQEAwIGQDA0BglghkgBhvhCAQ0EJxYlRWFzeS1SU0EgR2VuZXJhdGVk
IFNlcnZlciBDZXJ0aWZpY2F0ZTAdBgNVHQ4EFgQUn58EDGU+yfdi+znrmyG4q53U
PTswgcEGA1UdIwSBuTCBtoAURiwSm7kcBtmHzFBFJZlsP93/zPyhgZKkgY8wgYwx
CzAJBgNVBAYTAkFVMQwwCgYDVQQIEwNOU1cxDzANBgNVBAcTBlN5ZG5leTEYMBYG
A1UEChMPTmV0Y29tbXdpcmVsZXNzMRswGQYDVQQDExJOZXRjb21td2lyZWxlc3Mg
Q0ExJzAlBgkqhkiG9w0BCQEWGGNlcnRAbmV0Y29tbXdpcmVsZXNzLmNvbYIJAN9m
DS/k0O0AMBMGA1UdJQQMMAoGCCsGAQUFBwMBMAsGA1UdDwQEAwIFoDANBgkqhkiG
9w0BAQ0FAAOCAgEAfCSvLDk1+CnldaN7eN+IKktTLoAofkHgqoFXMngAIfYmDCOR
qRBdcotIW0Z1b3HscARlZVJekBs/ThBBJPvMxRHTSrLdtEbQeRs+PG+u8I3G68PE
FzEopb/WAKdOxMtegWM1U3nBVoFL90DCcObwYxKHN6CAUCiDQiHAF4RQap3ip858
WdgoRXmB7vuN/5fR4k1GuFtw9R4Y+O8ISa0QxiNeCWFwvTpz2fgU/zGoSTW03ADn
mqJf4CdnwSx4eBmHRL/L7rEAE1r7Jsy8hLVKtP1NeVXTygHNxW7I3FYNQY1Zlq2R
QI4/YuHJydCCpuOSCcIEB5zCYoXoeghx5mEaSL4Pc0sh7bo5UDPEIDL13Ksh9cl9
6AEUySS1aykzEc2Y7b5UrEcWrZbTPDILBtKWk1IVF2eap/wbDoLroB40Fgw5yXq2
1I2FQW8w8zS19JA/vnGKDc8S6yOMGJ6NF/X6btJA6VfAOPu5nqw4ufCAUTI9tX+Q
RAsB6s5/6qnj4g74PYhUYaXdhMPrPqQTZQ0LW8cu0rdd8t/Sy5spye8SecQxZkNp
Osp9kGlPoHMKfwkOGv0GPZQaq347YwfRbWJWtoCLOkU8yG2m4Qbafh/LnkvPM4Zm
4IWTvW2dktzCPV1OHEhRnQoXsTjXc/gYXkK3jO4TXyp2hrYhR0Ku+K8XTas=
-----END CERTIFICATE-----
